target datalayout = "e-m:e-p270:32:32-p271:32:32-p272:64:64-i64:64-i128:128-f80:128-n8:16:32:64-S128"
target triple = "x86_64-pc-linux-gnu"

%struct.ge_p3 = type { [10 x i32], [10 x i32], [10 x i32], [10 x i32] }

; Function Attrs: nounwind uwtable
define internal i32 @fe_isnegative(ptr noundef %0) #0 {
  %2 = alloca ptr, align 8
  %3 = alloca [32 x i8], align 16
  store ptr %0, ptr %2, align 8, !tbaa !26
  call void @llvm.lifetime.start.p0(i64 32, ptr %3) #6
  %4 = getelementptr inbounds [32 x i8], ptr %3, i64 0, i64 0
  %5 = load ptr, ptr %2, align 8, !tbaa !26
  call void @fe_tobytes(ptr noundef %4, ptr noundef %5)
  %6 = getelementptr inbounds [32 x i8], ptr %3, i64 0, i64 0
  %7 = load i8, ptr %6, align 16, !tbaa !10
  %8 = zext i8 %7 to i32
  %9 = and i32 %8, 1
  call void @llvm.lifetime.end.p0(i64 32, ptr %3) #6
  ret i32 %9
}

; Function Attrs: nounwind uwtable
define internal void @ge_p3_tobytes(ptr noundef %0, ptr noundef %1) #0 {
  %3 = alloca ptr, align 8
  %4 = alloca ptr, align 8
  %5 = alloca [10 x i32], align 16
  %6 = alloca [10 x i32], align 16
  %7 = alloca [10 x i32], align 16
  store ptr %0, ptr %3, align 8, !tbaa !3
  store ptr %1, ptr %4, align 8, !tbaa !19
  call void @llvm.lifetime.start.p0(i64 40, ptr %5) #6
  call void @llvm.lifetime.start.p0(i64 40, ptr %6) #6
  call void @llvm.lifetime.start.p0(i64 40, ptr %7) #6
  %8 = getelementptr inbounds [10 x i32], ptr %5, i64 0, i64 0
  %9 = load ptr, ptr %4, align 8, !tbaa !19
  %10 = getelementptr inbounds nuw %struct.ge_p3, ptr %9, i32 0, i32 2
  %11 = getelementptr inbounds [10 x i32], ptr %10, i64 0, i64 0
  call void @fe_invert(ptr noundef %8, ptr noundef %11)
  %12 = getelementptr inbounds [10 x i32], ptr %6, i64 0, i64 0
  %13 = load ptr, ptr %4, align 8, !tbaa !19
  %14 = getelementptr inbounds nuw %struct.ge_p3, ptr %13, i32 0, i32 0
  %15 = getelementptr inbounds [10 x i32], ptr %14, i64 0, i64 0
  %16 = getelementptr inbounds [10 x i32], ptr %5, i64 0, i64 0
  call void @fe_mul(ptr noundef %12, ptr noundef %15, ptr noundef %16)
  %17 = getelementptr inbounds [10 x i32], ptr %7, i64 0, i64 0
  %18 = load ptr, ptr %4, align 8, !tbaa !19
  %19 = getelementptr inbounds nuw %struct.ge_p3, ptr %18, i32 0, i32 1
  %20 = getelementptr inbounds [10 x i32], ptr %19, i64 0, i64 0
  %21 = getelementptr inbounds [10 x i32], ptr %5, i64 0, i64 0
  call void @fe_mul(ptr noundef %17, ptr noundef %20, ptr noundef %21)
  %22 = load ptr, ptr %3, align 8, !tbaa !3
  %23 = getelementptr inbounds [10 x i32], ptr %7, i64 0, i64 0
  call void @fe_tobytes(ptr noundef %22, ptr noundef %23)
  %24 = getelementptr inbounds [10 x i32], ptr %6, i64 0, i64 0
  %25 = call i32 @fe_isnegative(ptr noundef %24)
  %26 = shl i32 %25, 7
  %27 = load ptr, ptr %3, align 8, !tbaa !3
  %28 = getelementptr inbounds i8, ptr %27, i64 31
  %29 = load i8, ptr %28, align 1, !tbaa !10
  %30 = zext i8 %29 to i32
  %31 = xor i32 %30, %26
  %32 = trunc i32 %31 to i8
  store i8 %32, ptr %28, align 1, !tbaa !10
  call void @llvm.lifetime.end.p0(i64 40, ptr %7) #6
  call void @llvm.lifetime.end.p0(i64 40, ptr %6) #6
  call void @llvm.lifetime.end.p0(i64 40, ptr %5) #6
  ret void
}